; Function Attrs: mustprogress uwtable
define hidden noundef zeroext i1 @_Z7is_atomR11ast_managerP4expr(ptr noundef nonnull align 8 dereferenceable(976) %0, ptr noundef %1) local_unnamed_addr #3 {
  %3 = getelementptr inbounds nuw i8, ptr %1, i64 4
  %4 = load i32, ptr %3, align 4
  %5 = and i32 %4, 65535
  %6 = icmp eq i32 %5, 2
  br i1 %6, label %_ZNK3app13get_family_idEv.exit.thread, label %7

7:                                                ; preds = %2
  %8 = tail call noundef zeroext i1 @_ZNK11ast_manager7is_boolEPK4expr(ptr noundef nonnull align 8 dereferenceable(976) %0, ptr noundef nonnull %1)
  br i1 %8, label %9, label %_ZNK3app13get_family_idEv.exit.thread

9:                                                ; preds = %7
  %10 = load i32, ptr %3, align 4
  %11 = and i32 %10, 65535
  %12 = icmp eq i32 %11, 1
  br i1 %12, label %_ZNK3app13get_family_idEv.exit.thread, label %13

13:                                               ; preds = %9
  %14 = getelementptr inbounds nuw i8, ptr %1, i64 16
  %15 = load ptr, ptr %14, align 8, !tbaa !52
  %16 = getelementptr inbounds nuw i8, ptr %15, i64 24
  %17 = load ptr, ptr %16, align 8, !tbaa !53
  %18 = icmp eq ptr %17, null
  br i1 %18, label %_ZNK3app13get_family_idEv.exit.thread, label %_ZNK3app13get_family_idEv.exit

_ZNK3app13get_family_idEv.exit:                   ; preds = %13
  %19 = load i32, ptr %17, align 8, !tbaa !56
  %.not = icmp eq i32 %19, 0
  br i1 %.not, label %20, label %_ZNK3app13get_family_idEv.exit.thread

20:                                               ; preds = %_ZNK3app13get_family_idEv.exit
  %21 = icmp eq i32 %11, 0
  br i1 %21, label %_ZNK11ast_manager5is_eqEPK4expr.exit, label %_ZNK11ast_manager5is_eqEPK4expr.exit.thread

_ZNK11ast_manager5is_eqEPK4expr.exit:             ; preds = %20
  %22 = getelementptr inbounds nuw i8, ptr %17, i64 4
  %23 = load i32, ptr %22, align 4
  %24 = icmp eq i32 %23, 2
  br i1 %24, label %25, label %_ZNK11ast_manager5is_eqEPK4expr.exit.thread

25:                                               ; preds = %_ZNK11ast_manager5is_eqEPK4expr.exit
  %26 = getelementptr inbounds nuw i8, ptr %1, i64 32
  %27 = load ptr, ptr %26, align 8, !tbaa !3
  %28 = tail call noundef zeroext i1 @_ZNK11ast_manager7is_boolEPK4expr(ptr noundef nonnull align 8 dereferenceable(976) %0, ptr noundef %27)
  %29 = getelementptr inbounds nuw i8, ptr %0, i64 856
  %30 = load ptr, ptr %29, align 8
  %31 = icmp ne ptr %1, %30
  %or.cond.not = select i1 %28, i1 %31, i1 false
  br i1 %or.cond.not, label %32, label %_ZNK3app13get_family_idEv.exit.thread

_ZNK11ast_manager5is_eqEPK4expr.exit.thread:      ; preds = %20, %_ZNK11ast_manager5is_eqEPK4expr.exit
  %.old = getelementptr inbounds nuw i8, ptr %0, i64 856
  %.old17 = load ptr, ptr %.old, align 8, !tbaa !60
  %.old18 = icmp eq ptr %1, %.old17
  br i1 %.old18, label %_ZNK3app13get_family_idEv.exit.thread, label %32

32:                                               ; preds = %25, %_ZNK11ast_manager5is_eqEPK4expr.exit.thread
  %33 = getelementptr inbounds nuw i8, ptr %0, i64 864
  %34 = load ptr, ptr %33, align 8, !tbaa !121
  %35 = icmp eq ptr %1, %34
  br label %_ZNK3app13get_family_idEv.exit.thread

_ZNK3app13get_family_idEv.exit.thread:            ; preds = %13, %25, %_ZNK11ast_manager5is_eqEPK4expr.exit.thread, %32, %_ZNK3app13get_family_idEv.exit, %9, %2, %7
  %.0 = phi i1 [ false, %7 ], [ false, %2 ], [ true, %9 ], [ true, %_ZNK3app13get_family_idEv.exit ], [ true, %_ZNK11ast_manager5is_eqEPK4expr.exit.thread ], [ true, %25 ], [ %35, %32 ], [ true, %13 ]
  ret i1 %.0
}